target datalayout = "e-m:e-p270:32:32-p271:32:32-p272:64:64-i64:64-i128:128-f80:128-n8:16:32:64-S128"
target triple = "x86_64-pc-linux-gnu"

%struct.expert_field = type { i32, i32 }
%struct.reassembly_table = type { ptr, ptr, ptr, ptr, ptr }
%struct._packet_info = type { ptr, ptr, i32, i32, %struct.nstime_t, %struct.nstime_t, %struct.nstime_t, i8, ptr, ptr, ptr, ptr, %struct._address, %struct._address, %struct._address, %struct._address, %struct._address, %struct._address, i32, ptr, i8, [3 x i8], %struct.anon, i32, i32, i32, i32, ptr, i8, ptr, ptr, i16, i16, i32, i32, i16, i32, i32, ptr, ptr, ptr, i8, i8, i16, i16, i16, i32, i16, i16, ptr, ptr, ptr, ptr, ptr, i32, i32 }
%struct.nstime_t = type { i64, i32 }
%struct._address = type { i32, i32, ptr, ptr }
%struct.anon = type { i8, [3 x i8] }
%struct._MAD = type { i8, i8, i8, i8, i16, i8, i8, i64, i16, i16, i32 }
%struct._RMPP = type { i8, i8, i8, i8, i32, i32 }
%struct._SA_HEADER = type { i64, i16, i16, i64 }

@hf_opa_reserved16 = internal global i32 0, align 4
@hf_opa_pa = internal global i32 0, align 4
@hf_opa_pa_sm_key = internal global i32 0, align 4
@hf_opa_pa_attribute_offset = internal global i32 0, align 4
@hf_opa_pa_component_mask = internal global i32 0, align 4
@ett_pa = internal global i32 0, align 4
@ei_opa_mad_no_attribute_dissector = internal global %struct.expert_field zeroinitializer, align 4
@pref_parse_on_mad_status_error = internal global i8 0, align 1
@pref_attempt_rmpp_defragment = internal global i8 1, align 1
@.str.2271 = private unnamed_addr constant [7 x i8] c"opa.fe\00", align 1
@.str.2274 = private unnamed_addr constant [43 x i8] c"Attribute Dissector Not Implemented (0x%x)\00", align 1
@.str.2280 = private unnamed_addr constant [4 x i8] c" %s\00", align 1
@.str.2299 = private unnamed_addr constant [3 x i8] c"%s\00", align 1
@opa_mad_rmpp_reassembly_table = internal global %struct.reassembly_table zeroinitializer, align 8
@.str.2368 = private unnamed_addr constant [24 x i8] c"Reassembled RMPP Packet\00", align 1
@.str.2433 = private unnamed_addr constant [23 x i8] c"(Unknown Perf Method!)\00", align 1
@.str.2440 = private unnamed_addr constant [36 x i8] c"Attribute (Unknown Perf Attribute!)\00", align 1

; Function Attrs: null_pointer_is_valid sspstrong uwtable
define internal void @label_PA_Attribute(ptr noundef %0, ptr noundef %1, ptr noundef %2) #0 {
  %4 = alloca ptr, align 8
  %5 = alloca ptr, align 8
  %6 = alloca ptr, align 8
  %7 = alloca ptr, align 8
  store ptr %0, ptr %4, align 8
  store ptr %1, ptr %5, align 8
  store ptr %2, ptr %6, align 8
  call void @llvm.lifetime.start.p0(i64 8, ptr %7) #7
  %8 = load ptr, ptr %5, align 8
  %9 = getelementptr inbounds nuw %struct._MAD, ptr %8, i32 0, i32 8
  %10 = load i16, ptr %9, align 8
  %11 = zext i16 %10 to i32
  %12 = call ptr @val_to_str_const(i32 noundef %11, ptr noundef @PA_Attributes, ptr noundef @.str.2440)
  store ptr %12, ptr %7, align 8
  %13 = load ptr, ptr %4, align 8
  %14 = load ptr, ptr %7, align 8
  %15 = getelementptr i8, ptr %14, i64 11
  call void (ptr, ptr, ...) @proto_item_append_text(ptr noundef %13, ptr noundef @.str.2299, ptr noundef %15)
  %16 = load ptr, ptr %6, align 8
  %17 = getelementptr inbounds nuw %struct._packet_info, ptr %16, i32 0, i32 1
  %18 = load ptr, ptr %17, align 8
  %19 = load ptr, ptr %7, align 8
  %20 = getelementptr i8, ptr %19, i64 11
  call void @col_append_str(ptr noundef %18, i32 noundef 25, ptr noundef %20)
  call void @llvm.lifetime.end.p0(i64 8, ptr %7) #7
  ret void
}

; Function Attrs: null_pointer_is_valid sspstrong uwtable
define internal void @label_PA_Method(ptr noundef %0, ptr noundef %1, ptr noundef %2) #0 {
  %4 = alloca ptr, align 8
  %5 = alloca ptr, align 8
  %6 = alloca ptr, align 8
  %7 = alloca ptr, align 8
  store ptr %0, ptr %4, align 8
  store ptr %1, ptr %5, align 8
  store ptr %2, ptr %6, align 8
  call void @llvm.lifetime.start.p0(i64 8, ptr %7) #7
  %8 = load ptr, ptr %5, align 8
  %9 = getelementptr inbounds nuw %struct._MAD, ptr %8, i32 0, i32 3
  %10 = load i8, ptr %9, align 1
  %11 = zext i8 %10 to i32
  %12 = call ptr @val_to_str_const(i32 noundef %11, ptr noundef @PA_Methods, ptr noundef @.str.2433)
  store ptr %12, ptr %7, align 8
  %13 = load ptr, ptr %4, align 8
  %14 = load ptr, ptr %7, align 8
  call void (ptr, ptr, ...) @proto_item_append_text(ptr noundef %13, ptr noundef @.str.2280, ptr noundef %14)
  %15 = load ptr, ptr %6, align 8
  %16 = getelementptr inbounds nuw %struct._packet_info, ptr %15, i32 0, i32 1
  %17 = load ptr, ptr %16, align 8
  %18 = load ptr, ptr %7, align 8
  call void @col_append_str(ptr noundef %17, i32 noundef 25, ptr noundef %18)
  call void @llvm.lifetime.end.p0(i64 8, ptr %7) #7
  ret void
}

; Function Attrs: null_pointer_is_valid sspstrong uwtable
define internal zeroext i1 @parse_PA_HEADER(ptr noundef %0, ptr noundef %1, ptr noundef %2, ptr noundef %3, ptr noundef %4, ptr noundef %5) #0 {
  %7 = alloca ptr, align 8
  %8 = alloca ptr, align 8
  %9 = alloca ptr, align 8
  %10 = alloca ptr, align 8
  %11 = alloca ptr, align 8
  %12 = alloca ptr, align 8
  %13 = alloca i32, align 4
  %14 = alloca ptr, align 8
  %15 = alloca ptr, align 8
  store ptr %0, ptr %7, align 8
  store ptr %1, ptr %8, align 8
  store ptr %2, ptr %9, align 8
  store ptr %3, ptr %10, align 8
  store ptr %4, ptr %11, align 8
  store ptr %5, ptr %12, align 8
  call void @llvm.lifetime.start.p0(i64 4, ptr %13) #7
  %16 = load ptr, ptr %10, align 8
  %17 = load i32, ptr %16, align 4
  store i32 %17, ptr %13, align 4
  call void @llvm.lifetime.start.p0(i64 8, ptr %14) #7
  call void @llvm.lifetime.start.p0(i64 8, ptr %15) #7
  %18 = load ptr, ptr %7, align 8
  %19 = load i32, ptr @hf_opa_pa, align 4
  %20 = load ptr, ptr %9, align 8
  %21 = load i32, ptr %13, align 4
  %22 = call ptr @proto_tree_add_item(ptr noundef %18, i32 noundef %19, ptr noundef %20, i32 noundef %21, i32 noundef 20, i32 noundef 0)
  store ptr %22, ptr %14, align 8
  %23 = load ptr, ptr %14, align 8
  %24 = load i32, ptr @ett_pa, align 4
  %25 = call ptr @proto_item_add_subtree(ptr noundef %23, i32 noundef %24)
  store ptr %25, ptr %15, align 8
  %26 = load ptr, ptr %9, align 8
  %27 = load i32, ptr %13, align 4
  %28 = call i64 @tvb_get_ntoh64(ptr noundef %26, i32 noundef %27)
  %29 = load ptr, ptr %12, align 8
  %30 = getelementptr inbounds nuw %struct._SA_HEADER, ptr %29, i32 0, i32 0
  store i64 %28, ptr %30, align 8
  %31 = load ptr, ptr %15, align 8
  %32 = load i32, ptr @hf_opa_pa_sm_key, align 4
  %33 = load ptr, ptr %9, align 8
  %34 = load i32, ptr %13, align 4
  %35 = call ptr @proto_tree_add_item(ptr noundef %31, i32 noundef %32, ptr noundef %33, i32 noundef %34, i32 noundef 8, i32 noundef 0)
  %36 = load i32, ptr %13, align 4
  %37 = add i32 %36, 8
  store i32 %37, ptr %13, align 4
  %38 = load ptr, ptr %9, align 8
  %39 = load i32, ptr %13, align 4
  %40 = call zeroext i16 @tvb_get_ntohs(ptr noundef %38, i32 noundef %39)
  %41 = load ptr, ptr %12, align 8
  %42 = getelementptr inbounds nuw %struct._SA_HEADER, ptr %41, i32 0, i32 1
  store i16 %40, ptr %42, align 8
  %43 = load ptr, ptr %15, align 8
  %44 = load i32, ptr @hf_opa_pa_attribute_offset, align 4
  %45 = load ptr, ptr %9, align 8
  %46 = load i32, ptr %13, align 4
  %47 = call ptr @proto_tree_add_item(ptr noundef %43, i32 noundef %44, ptr noundef %45, i32 noundef %46, i32 noundef 2, i32 noundef 0)
  %48 = load i32, ptr %13, align 4
  %49 = add i32 %48, 2
  store i32 %49, ptr %13, align 4
  %50 = load ptr, ptr %9, align 8
  %51 = load i32, ptr %13, align 4
  %52 = call zeroext i16 @tvb_get_ntohs(ptr noundef %50, i32 noundef %51)
  %53 = load ptr, ptr %12, align 8
  %54 = getelementptr inbounds nuw %struct._SA_HEADER, ptr %53, i32 0, i32 2
  store i16 %52, ptr %54, align 2
  %55 = load ptr, ptr %15, align 8
  %56 = load i32, ptr @hf_opa_reserved16, align 4
  %57 = load ptr, ptr %9, align 8
  %58 = load i32, ptr %13, align 4
  %59 = call ptr @proto_tree_add_item(ptr noundef %55, i32 noundef %56, ptr noundef %57, i32 noundef %58, i32 noundef 2, i32 noundef 0)
  %60 = load i32, ptr %13, align 4
  %61 = add i32 %60, 2
  store i32 %61, ptr %13, align 4
  %62 = load ptr, ptr %9, align 8
  %63 = load i32, ptr %13, align 4
  %64 = call i64 @tvb_get_ntoh64(ptr noundef %62, i32 noundef %63)
  %65 = load ptr, ptr %12, align 8
  %66 = getelementptr inbounds nuw %struct._SA_HEADER, ptr %65, i32 0, i32 3
  store i64 %64, ptr %66, align 8
  %67 = load ptr, ptr %15, align 8
  %68 = load i32, ptr @hf_opa_pa_component_mask, align 4
  %69 = load ptr, ptr %9, align 8
  %70 = load i32, ptr %13, align 4
  %71 = call ptr @proto_tree_add_item(ptr noundef %67, i32 noundef %68, ptr noundef %69, i32 noundef %70, i32 noundef 8, i32 noundef 0)
  %72 = load i32, ptr %13, align 4
  %73 = add i32 %72, 8
  store i32 %73, ptr %13, align 4
  %74 = load ptr, ptr %14, align 8
  %75 = load ptr, ptr %11, align 8
  %76 = load ptr, ptr %8, align 8
  call void @label_PA_Method(ptr noundef %74, ptr noundef %75, ptr noundef %76)
  %77 = load ptr, ptr %14, align 8
  %78 = load ptr, ptr %11, align 8
  %79 = load ptr, ptr %8, align 8
  call void @label_PA_Attribute(ptr noundef %77, ptr noundef %78, ptr noundef %79)
  %80 = load i32, ptr %13, align 4
  %81 = load ptr, ptr %10, align 8
  store i32 %80, ptr %81, align 4
  call void @llvm.lifetime.end.p0(i64 8, ptr %15) #7
  call void @llvm.lifetime.end.p0(i64 8, ptr %14) #7
  call void @llvm.lifetime.end.p0(i64 4, ptr %13) #7
  ret i1 true
}

; Function Attrs: null_pointer_is_valid sspstrong uwtable
define internal void @parse_PERFADMN(ptr noundef %0, ptr noundef %1, ptr noundef %2, ptr noundef %3) #0 {
  %5 = alloca ptr, align 8
  %6 = alloca ptr, align 8
  %7 = alloca ptr, align 8
  %8 = alloca ptr, align 8
  %9 = alloca %struct._MAD, align 8
  %10 = alloca %struct._RMPP, align 4
  %11 = alloca %struct._SA_HEADER, align 8
  %12 = alloca ptr, align 8
  %13 = alloca ptr, align 8
  %14 = alloca i32, align 4
  %15 = alloca i8, align 1
  %16 = alloca i32, align 4
  store ptr %0, ptr %5, align 8
  store ptr %1, ptr %6, align 8
  store ptr %2, ptr %7, align 8
  store ptr %3, ptr %8, align 8
  call void @llvm.lifetime.start.p0(i64 24, ptr %9) #7
  call void @llvm.lifetime.start.p0(i64 12, ptr %10) #7
  call void @llvm.lifetime.start.p0(i64 24, ptr %11) #7
  call void @llvm.lifetime.start.p0(i64 8, ptr %12) #7
  store ptr null, ptr %12, align 8
  call void @llvm.lifetime.start.p0(i64 8, ptr %13) #7
  store ptr null, ptr %13, align 8
  call void @llvm.lifetime.start.p0(i64 4, ptr %14) #7
  call void @llvm.lifetime.start.p0(i64 1, ptr %15) #7
  %17 = load ptr, ptr %6, align 8
  %18 = getelementptr inbounds nuw %struct._packet_info, ptr %17, i32 0, i32 39
  %19 = load ptr, ptr %18, align 8
  %20 = call zeroext i1 @proto_is_frame_protocol(ptr noundef %19, ptr noundef @.str.2271)
  %21 = zext i1 %20 to i8
  store i8 %21, ptr %15, align 1
  %22 = load ptr, ptr %5, align 8
  %23 = load ptr, ptr %6, align 8
  %24 = load ptr, ptr %7, align 8
  %25 = load ptr, ptr %8, align 8
  %26 = call zeroext i1 @parse_MAD_Common(ptr noundef %22, ptr noundef %23, ptr noundef %24, ptr noundef %25, ptr noundef %9)
  br i1 %26, label %28, label %27

27:                                               ; preds = %4
  store i32 1, ptr %16, align 4
  br label %159

28:                                               ; preds = %4
  %29 = load ptr, ptr %5, align 8
  %30 = load ptr, ptr %6, align 8
  %31 = load ptr, ptr %7, align 8
  %32 = load ptr, ptr %8, align 8
  %33 = call zeroext i1 @parse_RMPP(ptr noundef %29, ptr noundef %30, ptr noundef %31, ptr noundef %32, ptr noundef %10)
  br i1 %33, label %35, label %34

34:                                               ; preds = %28
  store i32 1, ptr %16, align 4
  br label %159

35:                                               ; preds = %28
  %36 = load ptr, ptr %5, align 8
  %37 = load ptr, ptr %6, align 8
  %38 = load ptr, ptr %7, align 8
  %39 = load ptr, ptr %8, align 8
  %40 = call zeroext i1 @parse_PA_HEADER(ptr noundef %36, ptr noundef %37, ptr noundef %38, ptr noundef %39, ptr noundef %9, ptr noundef %11)
  br i1 %40, label %42, label %41

41:                                               ; preds = %35
  store i32 1, ptr %16, align 4
  br label %159

42:                                               ; preds = %35
  %43 = load i8, ptr @pref_parse_on_mad_status_error, align 1, !range !8, !noundef !9
  %44 = trunc i8 %43 to i1
  br i1 %44, label %50, label %45

45:                                               ; preds = %42
  %46 = getelementptr inbounds nuw %struct._MAD, ptr %9, i32 0, i32 4
  %47 = load i16, ptr %46, align 4
  %48 = zext i16 %47 to i32
  %49 = icmp ne i32 %48, 0
  br i1 %49, label %55, label %50

50:                                               ; preds = %45, %42
  %51 = getelementptr inbounds nuw %struct._RMPP, ptr %10, i32 0, i32 1
  %52 = load i8, ptr %51, align 1
  %53 = zext i8 %52 to i32
  %54 = icmp eq i32 %53, 2
  br i1 %54, label %55, label %63

55:                                               ; preds = %50, %45
  %56 = load ptr, ptr %7, align 8
  %57 = load ptr, ptr %8, align 8
  %58 = load i32, ptr %57, align 4
  %59 = call i32 @tvb_captured_length_remaining(ptr noundef %56, i32 noundef %58)
  %60 = load ptr, ptr %8, align 8
  %61 = load i32, ptr %60, align 4
  %62 = add i32 %61, %59
  store i32 %62, ptr %60, align 4
  store i32 1, ptr %16, align 4
  br label %159

63:                                               ; preds = %50
  %64 = load i8, ptr %15, align 1, !range !8, !noundef !9
  %65 = trunc i8 %64 to i1
  br i1 %65, label %140, label %66

66:                                               ; preds = %63
  %67 = load i8, ptr @pref_attempt_rmpp_defragment, align 1, !range !8, !noundef !9
  %68 = trunc i8 %67 to i1
  br i1 %68, label %69, label %140

69:                                               ; preds = %66
  %70 = getelementptr inbounds nuw %struct._RMPP, ptr %10, i32 0, i32 2
  %71 = load i8, ptr %70, align 2
  %72 = zext i8 %71 to i32
  %73 = and i32 %72, 1
  %74 = icmp ne i32 %73, 0
  br i1 %74, label %75, label %140

75:                                               ; preds = %69
  %76 = getelementptr inbounds nuw %struct._RMPP, ptr %10, i32 0, i32 1
  %77 = load i8, ptr %76, align 1
  %78 = zext i8 %77 to i32
  %79 = icmp eq i32 %78, 1
  br i1 %79, label %80, label %140

80:                                               ; preds = %75
  %81 = getelementptr inbounds nuw %struct._RMPP, ptr %10, i32 0, i32 2
  %82 = load i8, ptr %81, align 2
  %83 = zext i8 %82 to i32
  %84 = and i32 %83, 2
  %85 = icmp ne i32 %84, 0
  br i1 %85, label %86, label %92

86:                                               ; preds = %80
  %87 = getelementptr inbounds nuw %struct._RMPP, ptr %10, i32 0, i32 2
  %88 = load i8, ptr %87, align 2
  %89 = zext i8 %88 to i32
  %90 = and i32 %89, 4
  %91 = icmp ne i32 %90, 0
  br i1 %91, label %140, label %92

92:                                               ; preds = %86, %80
  %93 = load ptr, ptr %7, align 8
  %94 = load ptr, ptr %8, align 8
  %95 = load i32, ptr %94, align 4
  %96 = load ptr, ptr %6, align 8
  %97 = getelementptr inbounds nuw %struct._MAD, ptr %9, i32 0, i32 7
  %98 = load i64, ptr %97, align 8
  %99 = trunc i64 %98 to i32
  %100 = getelementptr inbounds nuw %struct._RMPP, ptr %10, i32 0, i32 4
  %101 = load i32, ptr %100, align 4
  %102 = sub i32 %101, 1
  %103 = getelementptr inbounds nuw %struct._RMPP, ptr %10, i32 0, i32 2
  %104 = load i8, ptr %103, align 2
  %105 = zext i8 %104 to i32
  %106 = and i32 %105, 4
  %107 = icmp ne i32 %106, 0
  br i1 %107, label %108, label %112

108:                                              ; preds = %92
  %109 = getelementptr inbounds nuw %struct._RMPP, ptr %10, i32 0, i32 5
  %110 = load i32, ptr %109, align 4
  %111 = sub i32 %110, 20
  br label %117

112:                                              ; preds = %92
  %113 = load ptr, ptr %7, align 8
  %114 = load ptr, ptr %8, align 8
  %115 = load i32, ptr %114, align 4
  %116 = call i32 @tvb_captured_length_remaining(ptr noundef %113, i32 noundef %115)
  br label %117

117:                                              ; preds = %112, %108
  %118 = phi i32 [ %111, %108 ], [ %116, %112 ]
  %119 = getelementptr inbounds nuw %struct._RMPP, ptr %10, i32 0, i32 2
  %120 = load i8, ptr %119, align 2
  %121 = zext i8 %120 to i32
  %122 = and i32 %121, 4
  %123 = icmp ne i32 %122, 0
  %124 = xor i1 %123, true
  %125 = call ptr @fragment_add_seq_check(ptr noundef @opa_mad_rmpp_reassembly_table, ptr noundef %93, i32 noundef %95, ptr noundef %96, i32 noundef %99, ptr noundef null, i32 noundef %102, i32 noundef %118, i1 noundef zeroext %124)
  store ptr %125, ptr %12, align 8
  %126 = load ptr, ptr %7, align 8
  store ptr %126, ptr %13, align 8
  %127 = load ptr, ptr %8, align 8
  %128 = load i32, ptr %127, align 4
  store i32 %128, ptr %14, align 4
  %129 = load ptr, ptr %13, align 8
  %130 = load i32, ptr %14, align 4
  %131 = load ptr, ptr %6, align 8
  %132 = load ptr, ptr %12, align 8
  %133 = load ptr, ptr %5, align 8
  %134 = call ptr @process_reassembled_data(ptr noundef %129, i32 noundef %130, ptr noundef %131, ptr noundef @.str.2368, ptr noundef %132, ptr noundef @opa_rmpp_frag_items, ptr noundef null, ptr noundef %133)
  store ptr %134, ptr %7, align 8
  %135 = load ptr, ptr %7, align 8
  %136 = icmp eq ptr %135, null
  br i1 %136, label %137, label %138

137:                                              ; preds = %117
  store i32 1, ptr %16, align 4
  br label %159

138:                                              ; preds = %117
  %139 = load ptr, ptr %8, align 8
  store i32 0, ptr %139, align 4
  br label %140

140:                                              ; preds = %138, %86, %75, %69, %66, %63
  %141 = load ptr, ptr %5, align 8
  %142 = load ptr, ptr %7, align 8
  %143 = load ptr, ptr %8, align 8
  %144 = call zeroext i1 @parse_PA_Attribute(ptr noundef %141, ptr noundef %142, ptr noundef %143, ptr noundef %9, ptr noundef %10, ptr noundef %11)
  br i1 %144, label %158, label %145

145:                                              ; preds = %140
  %146 = load ptr, ptr %6, align 8
  %147 = getelementptr inbounds nuw %struct._MAD, ptr %9, i32 0, i32 8
  %148 = load i16, ptr %147, align 8
  %149 = zext i16 %148 to i32
  %150 = call ptr (ptr, ptr, ptr, ptr, ...) @expert_add_info_format(ptr noundef %146, ptr noundef null, ptr noundef @ei_opa_mad_no_attribute_dissector, ptr noundef @.str.2274, i32 noundef %149)
  %151 = load ptr, ptr %7, align 8
  %152 = load ptr, ptr %8, align 8
  %153 = load i32, ptr %152, align 4
  %154 = call i32 @tvb_captured_length_remaining(ptr noundef %151, i32 noundef %153)
  %155 = load ptr, ptr %8, align 8
  %156 = load i32, ptr %155, align 4
  %157 = add i32 %156, %154
  store i32 %157, ptr %155, align 4
  store i32 1, ptr %16, align 4
  br label %159

158:                                              ; preds = %140
  store i32 0, ptr %16, align 4
  br label %159

159:                                              ; preds = %158, %145, %137, %55, %41, %34, %27
  call void @llvm.lifetime.end.p0(i64 1, ptr %15) #7
  call void @llvm.lifetime.end.p0(i64 4, ptr %14) #7
  call void @llvm.lifetime.end.p0(i64 8, ptr %13) #7
  call void @llvm.lifetime.end.p0(i64 8, ptr %12) #7
  call void @llvm.lifetime.end.p0(i64 24, ptr %11) #7
  call void @llvm.lifetime.end.p0(i64 12, ptr %10) #7
  call void @llvm.lifetime.end.p0(i64 24, ptr %9) #7
  %160 = load i32, ptr %16, align 4
  switch i32 %160, label %162 [
    i32 0, label %161
    i32 1, label %161
  ]

161:                                              ; preds = %159, %159
  ret void

162:                                              ; preds = %159
  unreachable
}