; Function Attrs: null_pointer_is_valid sspstrong uwtable
define internal fastcc void @parse_PERFADMN(ptr noundef %0, ptr noundef %1, ptr noundef %2, ptr noundef captures(none) %3) unnamed_addr #0 {
  %5 = alloca %struct._MAD, align 8
  %6 = alloca %struct._RMPP, align 4
  call void @llvm.lifetime.start.p0(i64 24, ptr nonnull %5) #5
  call void @llvm.lifetime.start.p0(i64 12, ptr nonnull %6) #5
  %7 = getelementptr inbounds nuw i8, ptr %1, i64 360
  %8 = load ptr, ptr %7, align 8
  %9 = tail call zeroext i1 @proto_is_frame_protocol(ptr noundef %8, ptr noundef nonnull @.str.2271)
  %10 = call fastcc zeroext i1 @parse_MAD_Common(ptr noundef %0, ptr noundef %1, ptr noundef %2, ptr noundef %3, ptr noundef nonnull %5)
  br i1 %10, label %11, label %99

11:                                               ; preds = %4
  %12 = call fastcc zeroext i1 @parse_RMPP(ptr noundef %0, ptr noundef %1, ptr noundef %2, ptr noundef %3, ptr noundef nonnull %6)
  br i1 %12, label %13, label %99

13:                                               ; preds = %11
  %14 = load i32, ptr %3, align 4
  %15 = load i32, ptr @hf_opa_pa, align 4
  %16 = call ptr @proto_tree_add_item(ptr noundef %0, i32 noundef %15, ptr noundef %2, i32 noundef %14, i32 noundef 20, i32 noundef 0)
  %17 = load i32, ptr @ett_pa, align 4
  %18 = call ptr @proto_item_add_subtree(ptr noundef %16, i32 noundef %17)
  %19 = call i64 @tvb_get_ntoh64(ptr noundef %2, i32 noundef %14)
  %20 = load i32, ptr @hf_opa_pa_sm_key, align 4
  %21 = call ptr @proto_tree_add_item(ptr noundef %18, i32 noundef %20, ptr noundef %2, i32 noundef %14, i32 noundef 8, i32 noundef 0)
  %22 = add i32 %14, 8
  %23 = call zeroext i16 @tvb_get_ntohs(ptr noundef %2, i32 noundef %22)
  %24 = load i32, ptr @hf_opa_pa_attribute_offset, align 4
  %25 = call ptr @proto_tree_add_item(ptr noundef %18, i32 noundef %24, ptr noundef %2, i32 noundef %22, i32 noundef 2, i32 noundef 0)
  %26 = add i32 %14, 10
  %27 = call zeroext i16 @tvb_get_ntohs(ptr noundef %2, i32 noundef %26)
  %28 = load i32, ptr @hf_opa_reserved16, align 4
  %29 = call ptr @proto_tree_add_item(ptr noundef %18, i32 noundef %28, ptr noundef %2, i32 noundef %26, i32 noundef 2, i32 noundef 0)
  %30 = add i32 %14, 12
  %31 = call i64 @tvb_get_ntoh64(ptr noundef %2, i32 noundef %30)
  %32 = load i32, ptr @hf_opa_pa_component_mask, align 4
  %33 = call ptr @proto_tree_add_item(ptr noundef %18, i32 noundef %32, ptr noundef %2, i32 noundef %30, i32 noundef 8, i32 noundef 0)
  %34 = add i32 %14, 20
  %35 = getelementptr inbounds nuw i8, ptr %5, i64 3
  %.val.i = load i8, ptr %35, align 1
  %36 = zext i8 %.val.i to i32
  %37 = call ptr @val_to_str_const(i32 noundef %36, ptr noundef nonnull @PA_Methods, ptr noundef nonnull @.str.2433)
  call void (ptr, ptr, ...) @proto_item_append_text(ptr noundef %16, ptr noundef nonnull @.str.2280, ptr noundef %37)
  %38 = getelementptr inbounds nuw i8, ptr %1, i64 8
  %39 = load ptr, ptr %38, align 8
  call void @col_append_str(ptr noundef %39, i32 noundef 25, ptr noundef %37)
  %40 = getelementptr inbounds nuw i8, ptr %5, i64 16
  %.val40.i = load i16, ptr %40, align 8
  %41 = zext i16 %.val40.i to i32
  %42 = call ptr @val_to_str_const(i32 noundef %41, ptr noundef nonnull @PA_Attributes, ptr noundef nonnull @.str.2440)
  %43 = getelementptr i8, ptr %42, i64 11
  call void (ptr, ptr, ...) @proto_item_append_text(ptr noundef %16, ptr noundef nonnull @.str.2299, ptr noundef %43)
  %44 = load ptr, ptr %38, align 8
  call void @col_append_str(ptr noundef %44, i32 noundef 25, ptr noundef %43)
  store i32 %34, ptr %3, align 4
  %45 = load i8, ptr @pref_parse_on_mad_status_error, align 1, !range !8, !noundef !9
  %46 = trunc nuw i8 %45 to i1
  %.not = xor i1 %46, true
  %47 = getelementptr inbounds nuw i8, ptr %5, i64 4
  %48 = load i16, ptr %47, align 4
  %49 = icmp ne i16 %48, 0
  %or.cond = select i1 %.not, i1 %49, i1 false
  %50 = getelementptr inbounds nuw i8, ptr %6, i64 1
  %51 = load i8, ptr %50, align 1
  %52 = icmp eq i8 %51, 2
  %or.cond7 = select i1 %or.cond, i1 true, i1 %52
  br i1 %or.cond7, label %53, label %55

53:                                               ; preds = %13
  %54 = call i32 @tvb_captured_length_remaining(ptr noundef %2, i32 noundef %34)
  br label %.sink.split

55:                                               ; preds = %13
  br i1 %9, label %88, label %56

56:                                               ; preds = %55
  %57 = load i8, ptr @pref_attempt_rmpp_defragment, align 1, !range !8, !noundef !9
  %58 = trunc nuw i8 %57 to i1
  br i1 %58, label %59, label %88

59:                                               ; preds = %56
  %60 = getelementptr inbounds nuw i8, ptr %6, i64 2
  %61 = load i8, ptr %60, align 2
  %62 = zext i8 %61 to i32
  %63 = and i32 %62, 1
  %64 = icmp eq i32 %63, 0
  %65 = icmp ne i8 %51, 1
  %or.cond11.not61 = select i1 %64, i1 true, i1 %65
  %66 = and i32 %62, 6
  %or.cond54.not = icmp eq i32 %66, 6
  %or.cond58 = or i1 %or.cond54.not, %or.cond11.not61
  br i1 %or.cond58, label %88, label %67

67:                                               ; preds = %59
  %68 = getelementptr inbounds nuw i8, ptr %5, i64 8
  %69 = load i64, ptr %68, align 8
  %70 = trunc i64 %69 to i32
  %71 = getelementptr inbounds nuw i8, ptr %6, i64 4
  %72 = load i32, ptr %71, align 4
  %73 = add i32 %72, -1
  %74 = and i8 %61, 4
  %.not52 = icmp eq i8 %74, 0
  br i1 %.not52, label %79, label %75

75:                                               ; preds = %67
  %76 = getelementptr inbounds nuw i8, ptr %6, i64 8
  %77 = load i32, ptr %76, align 4
  %78 = add i32 %77, -20
  br label %81

79:                                               ; preds = %67
  %80 = call i32 @tvb_captured_length_remaining(ptr noundef %2, i32 noundef %34)
  br label %81

81:                                               ; preds = %79, %75
  %82 = phi i32 [ %78, %75 ], [ %80, %79 ]
  %83 = call ptr @fragment_add_seq_check(ptr noundef nonnull @opa_mad_rmpp_reassembly_table, ptr noundef %2, i32 noundef %34, ptr noundef %1, i32 noundef %70, ptr noundef null, i32 noundef %73, i32 noundef %82, i1 noundef zeroext %.not52)
  %84 = load i32, ptr %3, align 4
  %85 = call ptr @process_reassembled_data(ptr noundef %2, i32 noundef %84, ptr noundef %1, ptr noundef nonnull @.str.2368, ptr noundef %83, ptr noundef nonnull @opa_rmpp_frag_items, ptr noundef null, ptr noundef %0)
  %86 = icmp eq ptr %85, null
  br i1 %86, label %99, label %87

87:                                               ; preds = %81
  store i32 0, ptr %3, align 4
  %.val.pre = load i8, ptr %50, align 1
  br label %88

88:                                               ; preds = %87, %59, %56, %55
  %.val = phi i8 [ %51, %55 ], [ %.val.pre, %87 ], [ %51, %59 ], [ %51, %56 ]
  %.0 = phi ptr [ %2, %55 ], [ %85, %87 ], [ %2, %59 ], [ %2, %56 ]
  %89 = getelementptr inbounds nuw i8, ptr %6, i64 4
  %.val55 = load i32, ptr %89, align 4
  %90 = call fastcc zeroext i1 @parse_PA_Attribute(ptr noundef %0, ptr noundef %.0, ptr noundef %3, ptr noundef nonnull %5, i8 %.val, i32 %.val55, i16 %23)
  br i1 %90, label %99, label %91

91:                                               ; preds = %88
  %92 = load i16, ptr %40, align 8
  %93 = zext i16 %92 to i32
  %94 = call ptr (ptr, ptr, ptr, ptr, ...) @expert_add_info_format(ptr noundef %1, ptr noundef null, ptr noundef nonnull @ei_opa_mad_no_attribute_dissector, ptr noundef nonnull @.str.2274, i32 noundef %93)
  %95 = load i32, ptr %3, align 4
  %96 = call i32 @tvb_captured_length_remaining(ptr noundef %.0, i32 noundef %95)
  br label %.sink.split

.sink.split:                                      ; preds = %53, %91
  %.sink64 = phi i32 [ %96, %91 ], [ %54, %53 ]
  %97 = load i32, ptr %3, align 4
  %98 = add i32 %97, %.sink64
  store i32 %98, ptr %3, align 4
  br label %99

99:                                               ; preds = %.sink.split, %88, %81, %11, %4
  call void @llvm.lifetime.end.p0(i64 12, ptr nonnull %6) #5
  call void @llvm.lifetime.end.p0(i64 24, ptr nonnull %5) #5
  ret void
}